; Function Attrs: mustprogress nounwind uwtable
define internal noundef ptr @_ZNSt23_Sp_counted_ptr_inplaceIN12_GLOBAL__N_113IntCastResultESaIvELN9__gnu_cxx12_Lock_policyE2EE14_M_get_deleterERKSt9type_info(ptr noundef nonnull readnone align 8 dereferenceable(104) %0, ptr noundef nonnull align 8 dereferenceable(16) %1) unnamed_addr #0 align 2 {
  %3 = getelementptr inbounds nuw i8, ptr %0, i64 16
  %4 = icmp eq ptr %1, @_ZZNSt19_Sp_make_shared_tag5_S_tiEvE5__tag
  br i1 %4, label %7, label %5

5:                                                ; preds = %2
  %6 = tail call noundef zeroext i1 @_ZNSt19_Sp_make_shared_tag5_S_eqERKSt9type_info(ptr noundef nonnull align 8 dereferenceable(16) %1) #22
  %spec.select = select i1 %6, ptr %3, ptr null
  br label %7

7:                                                ; preds = %5, %2
  %.0 = phi ptr [ %3, %2 ], [ %spec.select, %5 ]
  ret ptr %.0
}